target datalayout = "e-m:e-p270:32:32-p271:32:32-p272:64:64-i64:64-i128:128-f80:128-n8:16:32:64-S128"
target triple = "x86_64-pc-linux-gnu"

%struct.ossl_param_st = type { ptr, i32, ptr, i64, i64 }

@.str.53 = private unnamed_addr constant [31 x i8] c"../openssl/test/evp_kdf_test.c\00", align 1
@.str.59 = private unnamed_addr constant [25 x i8] c"passwordPASSWORDpassword\00", align 1
@.str.60 = private unnamed_addr constant [7 x i8] c"sha256\00", align 1
@.str.61 = private unnamed_addr constant [37 x i8] c"saltSALTsaltSALTsaltSALTsaltSALTsalt\00", align 1
@.str.62 = private unnamed_addr constant [7 x i8] c"params\00", align 1
@.str.65 = private unnamed_addr constant [37 x i8] c"EVP_KDF_CTX_set_params(kctx, params)\00", align 1
@.str.66 = private unnamed_addr constant [45 x i8] c"EVP_KDF_derive(kctx, out, sizeof(out), NULL)\00", align 1
@.str.67 = private unnamed_addr constant [2 x i8] c"0\00", align 1
@.str.107 = private unnamed_addr constant [7 x i8] c"PBKDF2\00", align 1
@.str.137 = private unnamed_addr constant [43 x i8] c"kctx = get_kdfbyname(OSSL_KDF_NAME_PBKDF2)\00", align 1
@.str.138 = private unnamed_addr constant [6 x i8] c"pkcs5\00", align 1
@.str.142 = private unnamed_addr constant [42 x i8] c"EVP_KDF_CTX_set_params(kctx, mode_params)\00", align 1

; Function Attrs: nounwind uwtable
define internal ptr @get_kdfbyname_libctx(ptr noundef %0, ptr noundef %1) #0 {
  %3 = alloca ptr, align 8
  %4 = alloca ptr, align 8
  %5 = alloca ptr, align 8
  %6 = alloca ptr, align 8
  store ptr %0, ptr %3, align 8, !tbaa !11
  store ptr %1, ptr %4, align 8, !tbaa !18
  call void @llvm.lifetime.start.p0(i64 8, ptr %5) #6
  %7 = load ptr, ptr %3, align 8, !tbaa !11
  %8 = load ptr, ptr %4, align 8, !tbaa !18
  %9 = call ptr @EVP_KDF_fetch(ptr noundef %7, ptr noundef %8, ptr noundef null)
  store ptr %9, ptr %5, align 8, !tbaa !26
  call void @llvm.lifetime.start.p0(i64 8, ptr %6) #6
  %10 = load ptr, ptr %5, align 8, !tbaa !26
  %11 = call ptr @EVP_KDF_CTX_new(ptr noundef %10)
  store ptr %11, ptr %6, align 8, !tbaa !8
  %12 = load ptr, ptr %5, align 8, !tbaa !26
  call void @EVP_KDF_free(ptr noundef %12)
  %13 = load ptr, ptr %6, align 8, !tbaa !8
  call void @llvm.lifetime.end.p0(i64 8, ptr %6) #6
  call void @llvm.lifetime.end.p0(i64 8, ptr %5) #6
  ret ptr %13
}

; Function Attrs: nounwind uwtable
define internal ptr @get_kdfbyname(ptr noundef %0) #0 {
  %2 = alloca ptr, align 8
  store ptr %0, ptr %2, align 8, !tbaa !18
  %3 = load ptr, ptr %2, align 8, !tbaa !18
  %4 = call ptr @get_kdfbyname_libctx(ptr noundef null, ptr noundef %3)
  ret ptr %4
}

; Function Attrs: nounwind uwtable
define internal i32 @test_kdf_pbkdf2_small_iterations_pkcs5() #0 {
  %1 = alloca i32, align 4
  %2 = alloca ptr, align 8
  %3 = alloca [25 x i8], align 16
  %4 = alloca i32, align 4
  %5 = alloca i32, align 4
  %6 = alloca ptr, align 8
  %7 = alloca [2 x %struct.ossl_param_st], align 16
  %8 = alloca %struct.ossl_param_st, align 8
  %9 = alloca %struct.ossl_param_st, align 8
  call void @llvm.lifetime.start.p0(i64 4, ptr %1) #6
  store i32 0, ptr %1, align 4, !tbaa !4
  call void @llvm.lifetime.start.p0(i64 8, ptr %2) #6
  store ptr null, ptr %2, align 8, !tbaa !8
  call void @llvm.lifetime.start.p0(i64 25, ptr %3) #6
  call void @llvm.lifetime.start.p0(i64 4, ptr %4) #6
  store i32 1, ptr %4, align 4, !tbaa !4
  call void @llvm.lifetime.start.p0(i64 4, ptr %5) #6
  store i32 1, ptr %5, align 4, !tbaa !4
  call void @llvm.lifetime.start.p0(i64 8, ptr %6) #6
  call void @llvm.lifetime.start.p0(i64 80, ptr %7) #6
  %10 = call ptr @construct_pbkdf2_params(ptr noundef @.str.59, ptr noundef @.str.60, ptr noundef @.str.61, ptr noundef %4, ptr noundef %5)
  store ptr %10, ptr %6, align 8, !tbaa !13
  %11 = load ptr, ptr %6, align 8, !tbaa !13
  %12 = call i32 @test_ptr(ptr noundef @.str.53, i32 noundef 809, ptr noundef @.str.62, ptr noundef %11)
  %13 = icmp ne i32 %12, 0
  br i1 %13, label %14, label %32

14:                                               ; preds = %0
  %15 = call ptr @get_kdfbyname(ptr noundef @.str.107)
  store ptr %15, ptr %2, align 8, !tbaa !8
  %16 = call i32 @test_ptr(ptr noundef @.str.53, i32 noundef 810, ptr noundef @.str.137, ptr noundef %15)
  %17 = icmp ne i32 %16, 0
  br i1 %17, label %18, label %32

18:                                               ; preds = %14
  %19 = load ptr, ptr %2, align 8, !tbaa !8
  %20 = load ptr, ptr %6, align 8, !tbaa !13
  %21 = call i32 @EVP_KDF_CTX_set_params(ptr noundef %19, ptr noundef %20)
  %22 = icmp ne i32 %21, 0
  %23 = zext i1 %22 to i32
  %24 = call i32 @test_true(ptr noundef @.str.53, i32 noundef 812, ptr noundef @.str.65, i32 noundef %23)
  %25 = icmp ne i32 %24, 0
  br i1 %25, label %26, label %32

26:                                               ; preds = %18
  %27 = load ptr, ptr %2, align 8, !tbaa !8
  %28 = getelementptr inbounds [25 x i8], ptr %3, i64 0, i64 0
  %29 = call i32 @EVP_KDF_derive(ptr noundef %27, ptr noundef %28, i64 noundef 25, ptr noundef null)
  %30 = call i32 @test_int_gt(ptr noundef @.str.53, i32 noundef 813, ptr noundef @.str.66, ptr noundef @.str.67, i32 noundef %29, i32 noundef 0)
  %31 = icmp ne i32 %30, 0
  br i1 %31, label %33, label %32

32:                                               ; preds = %26, %18, %14, %0
  br label %51

33:                                               ; preds = %26
  store i32 0, ptr %5, align 4, !tbaa !4
  %34 = getelementptr inbounds [2 x %struct.ossl_param_st], ptr %7, i64 0, i64 0
  call void @llvm.lifetime.start.p0(i64 40, ptr %8) #6
  call void @OSSL_PARAM_construct_int(ptr dead_on_unwind writable sret(%struct.ossl_param_st) align 8 %8, ptr noundef @.str.138, ptr noundef %5)
  call void @llvm.memcpy.p0.p0.i64(ptr align 16 %34, ptr align 8 %8, i64 40, i1 false), !tbaa.struct !17
  call void @llvm.lifetime.end.p0(i64 40, ptr %8) #6
  %35 = getelementptr inbounds [2 x %struct.ossl_param_st], ptr %7, i64 0, i64 1
  call void @llvm.lifetime.start.p0(i64 40, ptr %9) #6
  call void @OSSL_PARAM_construct_end(ptr dead_on_unwind writable sret(%struct.ossl_param_st) align 8 %9)
  call void @llvm.memcpy.p0.p0.i64(ptr align 8 %35, ptr align 8 %9, i64 40, i1 false), !tbaa.struct !17
  call void @llvm.lifetime.end.p0(i64 40, ptr %9) #6
  %36 = load ptr, ptr %2, align 8, !tbaa !8
  %37 = getelementptr inbounds [2 x %struct.ossl_param_st], ptr %7, i64 0, i64 0
  %38 = call i32 @EVP_KDF_CTX_set_params(ptr noundef %36, ptr noundef %37)
  %39 = icmp ne i32 %38, 0
  %40 = zext i1 %39 to i32
  %41 = call i32 @test_true(ptr noundef @.str.53, i32 noundef 821, ptr noundef @.str.142, i32 noundef %40)
  %42 = icmp ne i32 %41, 0
  br i1 %42, label %43, label %49

43:                                               ; preds = %33
  %44 = load ptr, ptr %2, align 8, !tbaa !8
  %45 = getelementptr inbounds [25 x i8], ptr %3, i64 0, i64 0
  %46 = call i32 @EVP_KDF_derive(ptr noundef %44, ptr noundef %45, i64 noundef 25, ptr noundef null)
  %47 = call i32 @test_int_eq(ptr noundef @.str.53, i32 noundef 822, ptr noundef @.str.66, ptr noundef @.str.67, i32 noundef %46, i32 noundef 0)
  %48 = icmp ne i32 %47, 0
  br i1 %48, label %50, label %49

49:                                               ; preds = %43, %33
  br label %51

50:                                               ; preds = %43
  store i32 1, ptr %1, align 4, !tbaa !4
  br label %51

51:                                               ; preds = %50, %49, %32
  %52 = load ptr, ptr %2, align 8, !tbaa !8
  call void @EVP_KDF_CTX_free(ptr noundef %52)
  %53 = load ptr, ptr %6, align 8, !tbaa !13
  call void @CRYPTO_free(ptr noundef %53, ptr noundef @.str.53, i32 noundef 828)
  %54 = load i32, ptr %1, align 4, !tbaa !4
  call void @llvm.lifetime.end.p0(i64 80, ptr %7) #6
  call void @llvm.lifetime.end.p0(i64 8, ptr %6) #6
  call void @llvm.lifetime.end.p0(i64 4, ptr %5) #6
  call void @llvm.lifetime.end.p0(i64 4, ptr %4) #6
  call void @llvm.lifetime.end.p0(i64 25, ptr %3) #6
  call void @llvm.lifetime.end.p0(i64 8, ptr %2) #6
  call void @llvm.lifetime.end.p0(i64 4, ptr %1) #6
  ret i32 %54
}