; Function Attrs: nounwind uwtable
define internal range(i32 0, 2) i32 @test_kdf_pbkdf2_small_iterations_pkcs5() #0 {
  %1 = alloca [25 x i8], align 16
  %2 = alloca i32, align 4
  %3 = alloca i32, align 4
  %4 = alloca [2 x %struct.ossl_param_st], align 16
  %5 = alloca %struct.ossl_param_st, align 8
  call void @llvm.lifetime.start.p0(i64 25, ptr nonnull %1) #6
  call void @llvm.lifetime.start.p0(i64 4, ptr nonnull %2) #6
  store i32 1, ptr %2, align 4, !tbaa !4
  call void @llvm.lifetime.start.p0(i64 4, ptr nonnull %3) #6
  store i32 1, ptr %3, align 4, !tbaa !4
  call void @llvm.lifetime.start.p0(i64 80, ptr nonnull %4) #6
  %6 = call fastcc ptr @construct_pbkdf2_params(ptr noundef nonnull @.str.60, ptr noundef nonnull @.str.61, ptr noundef %2, ptr noundef %3)
  %7 = call i32 @test_ptr(ptr noundef nonnull @.str.53, i32 noundef 809, ptr noundef nonnull @.str.62, ptr noundef %6) #6
  %.not = icmp eq i32 %7, 0
  br i1 %.not, label %29, label %8

8:                                                ; preds = %0
  %9 = call ptr @EVP_KDF_fetch(ptr noundef null, ptr noundef nonnull @.str.107, ptr noundef null) #6
  %10 = call ptr @EVP_KDF_CTX_new(ptr noundef %9) #6
  call void @EVP_KDF_free(ptr noundef %9) #6
  %11 = call i32 @test_ptr(ptr noundef nonnull @.str.53, i32 noundef 810, ptr noundef nonnull @.str.137, ptr noundef %10) #6
  %.not9 = icmp eq i32 %11, 0
  br i1 %.not9, label %29, label %12

12:                                               ; preds = %8
  %13 = call i32 @EVP_KDF_CTX_set_params(ptr noundef %10, ptr noundef %6) #6
  %14 = icmp ne i32 %13, 0
  %15 = zext i1 %14 to i32
  %16 = call i32 @test_true(ptr noundef nonnull @.str.53, i32 noundef 812, ptr noundef nonnull @.str.65, i32 noundef %15) #6
  %.not10 = icmp eq i32 %16, 0
  br i1 %.not10, label %29, label %17

17:                                               ; preds = %12
  %18 = call i32 @EVP_KDF_derive(ptr noundef %10, ptr noundef nonnull %1, i64 noundef 25, ptr noundef null) #6
  %19 = call i32 @test_int_gt(ptr noundef nonnull @.str.53, i32 noundef 813, ptr noundef nonnull @.str.66, ptr noundef nonnull @.str.67, i32 noundef %18, i32 noundef 0) #6
  %.not11 = icmp eq i32 %19, 0
  br i1 %.not11, label %29, label %20

20:                                               ; preds = %17
  store i32 0, ptr %3, align 4, !tbaa !4
  call void @OSSL_PARAM_construct_int(ptr dead_on_unwind nonnull writable sret(%struct.ossl_param_st) align 8 %4, ptr noundef nonnull @.str.138, ptr noundef nonnull %3) #6
  %21 = getelementptr inbounds nuw i8, ptr %4, i64 40
  call void @llvm.lifetime.start.p0(i64 40, ptr nonnull %5) #6
  call void @OSSL_PARAM_construct_end(ptr dead_on_unwind nonnull writable sret(%struct.ossl_param_st) align 8 %5) #6
  call void @llvm.memcpy.p0.p0.i64(ptr noundef nonnull align 8 dereferenceable(40) %21, ptr noundef nonnull align 8 dereferenceable(40) %5, i64 40, i1 false), !tbaa.struct !10
  call void @llvm.lifetime.end.p0(i64 40, ptr nonnull %5) #6
  %22 = call i32 @EVP_KDF_CTX_set_params(ptr noundef %10, ptr noundef nonnull %4) #6
  %23 = icmp ne i32 %22, 0
  %24 = zext i1 %23 to i32
  %25 = call i32 @test_true(ptr noundef nonnull @.str.53, i32 noundef 821, ptr noundef nonnull @.str.142, i32 noundef %24) #6
  %.not12 = icmp eq i32 %25, 0
  br i1 %.not12, label %29, label %26

26:                                               ; preds = %20
  %27 = call i32 @EVP_KDF_derive(ptr noundef %10, ptr noundef nonnull %1, i64 noundef 25, ptr noundef null) #6
  %28 = call i32 @test_int_eq(ptr noundef nonnull @.str.53, i32 noundef 822, ptr noundef nonnull @.str.66, ptr noundef nonnull @.str.67, i32 noundef %27, i32 noundef 0) #6
  %.not13 = icmp ne i32 %28, 0
  %spec.select = zext i1 %.not13 to i32
  br label %29

29:                                               ; preds = %26, %20, %0, %8, %12, %17
  %.08 = phi ptr [ %10, %20 ], [ %10, %17 ], [ %10, %12 ], [ %10, %8 ], [ null, %0 ], [ %10, %26 ]
  %.0 = phi i32 [ 0, %20 ], [ 0, %17 ], [ 0, %12 ], [ 0, %8 ], [ 0, %0 ], [ %spec.select, %26 ]
  call void @EVP_KDF_CTX_free(ptr noundef %.08) #6
  call void @CRYPTO_free(ptr noundef %6, ptr noundef nonnull @.str.53, i32 noundef 828) #6
  call void @llvm.lifetime.end.p0(i64 80, ptr nonnull %4) #6
  call void @llvm.lifetime.end.p0(i64 4, ptr nonnull %3) #6
  call void @llvm.lifetime.end.p0(i64 4, ptr nonnull %2) #6
  call void @llvm.lifetime.end.p0(i64 25, ptr nonnull %1) #6
  ret i32 %.0
}